; ModuleID = '57/2025.c'
source_filename = "57/2025.c"
target datalayout = "e-m:e-p270:32:32-p271:32:32-p272:64:64-i64:64-f80:128-n8:16:32:64-S128"
target triple = "x86_64-pc-linux-gnu"

@.str = private unnamed_addr constant [3 x i8] c"%d\00", align 1
@.str.1 = private unnamed_addr constant [3 x i8] c"%s\00", align 1
@.str.2 = private unnamed_addr constant [4 x i8] c"%s\0A\00", align 1

; Function Attrs: noinline nounwind uwtable
define dso_local i32 @main() #0 {
  %1 = alloca i32, align 4
  %2 = alloca i32, align 4
  %3 = alloca i32, align 4
  %4 = alloca i32, align 4
  %5 = alloca [15 x i8], align 1
  %6 = alloca [15 x i8], align 1
  store i32 0, i32* %1, align 4
  %7 = call i32 (i8*, ...) @__isoc99_scanf(i8* getelementptr inbounds ([3 x i8], [3 x i8]* @.str, i64 0, i64 0), i32* %2)
  store i32 0, i32* %3, align 4
  br label %8

8:                                                ; preds = %43, %0
  %9 = load i32, i32* %3, align 4
  %10 = load i32, i32* %2, align 4
  %11 = icmp slt i32 %9, %10
  br i1 %11, label %12, label %46

12:                                               ; preds = %8
  store i32 0, i32* %4, align 4
  %13 = bitcast [15 x i8]* %5 to i8*
  call void @llvm.memset.p0i8.i64(i8* align 1 %13, i8 0, i64 15, i1 false)
  %14 = bitcast [15 x i8]* %6 to i8*
  call void @llvm.memset.p0i8.i64(i8* align 1 %14, i8 0, i64 15, i1 false)
  %15 = call i32 (i8*, ...) @__isoc99_scanf(i8* getelementptr inbounds ([3 x i8], [3 x i8]* @.str.1, i64 0, i64 0), [15 x i8]* %5)
  %16 = getelementptr inbounds [15 x i8], [15 x i8]* %5, i64 0, i64 0
  %17 = call i64 @strlen(i8* %16) #5
  %18 = trunc i64 %17 to i32
  store i32 %18, i32* %4, align 4
  %19 = load i32, i32* %4, align 4
  %20 = sub nsw i32 %19, 1
  %21 = sext i32 %20 to i64
  %22 = getelementptr inbounds [15 x i8], [15 x i8]* %5, i64 0, i64 %21
  %23 = load i8, i8* %22, align 1
  %24 = sext i8 %23 to i32
  %25 = icmp eq i32 %24, 103
  br i1 %25, label %26, label %33

26:                                               ; preds = %12
  %27 = getelementptr inbounds [15 x i8], [15 x i8]* %6, i64 0, i64 0
  %28 = getelementptr inbounds [15 x i8], [15 x i8]* %5, i64 0, i64 0
  %29 = load i32, i32* %4, align 4
  %30 = sub nsw i32 %29, 3
  %31 = sext i32 %30 to i64
  %32 = call i8* @strncpy(i8* %27, i8* %28, i64 %31) #6
  br label %40

33:                                               ; preds = %12
  %34 = getelementptr inbounds [15 x i8], [15 x i8]* %6, i64 0, i64 0
  %35 = getelementptr inbounds [15 x i8], [15 x i8]* %5, i64 0, i64 0
  %36 = load i32, i32* %4, align 4
  %37 = sub nsw i32 %36, 2
  %38 = sext i32 %37 to i64
  %39 = call i8* @strncpy(i8* %34, i8* %35, i64 %38) #6
  br label %40

40:                                               ; preds = %33, %26
  %41 = getelementptr inbounds [15 x i8], [15 x i8]* %6, i64 0, i64 0
  %42 = call i32 (i8*, ...) @printf(i8* getelementptr inbounds ([4 x i8], [4 x i8]* @.str.2, i64 0, i64 0), i8* %41)
  br label %43

43:                                               ; preds = %40
  %44 = load i32, i32* %3, align 4
  %45 = add nsw i32 %44, 1
  store i32 %45, i32* %3, align 4
  br label %8

46:                                               ; preds = %8
  ret i32 0
}

declare dso_local i32 @__isoc99_scanf(i8*, ...) #1

; Function Attrs: argmemonly nounwind willreturn
declare void @llvm.memset.p0i8.i64(i8* nocapture writeonly, i8, i64, i1 immarg) #2

; Function Attrs: nounwind readonly
declare dso_local i64 @strlen(i8*) #3

; Function Attrs: nounwind
declare dso_local i8* @strncpy(i8*, i8*, i64) #4

declare dso_local i32 @printf(i8*, ...) #1


!llvm.module.flags = !{!0}
!llvm.ident = !{!1}

!0 = !{i32 1, !"wchar_size", i32 4}
!1 = !{!"clang version 10.0.0-4ubuntu1 "}
